; Function Attrs: nounwind uwtable
define ptr @l_Lake_stringToLegalOrSimpleName(ptr noundef %0) local_unnamed_addr #0 {
  %2 = ptrtoint ptr %0 to i64
  %3 = and i64 %2, 1
  %.not = icmp eq i64 %3, 0
  br i1 %.not, label %4, label %lean_inc.exit

4:                                                ; preds = %1
  %.val.i = load i32, ptr %0, align 4, !tbaa !4
  %5 = icmp sgt i32 %.val.i, 0
  br i1 %5, label %6, label %8, !prof !9

6:                                                ; preds = %4
  %7 = add nuw i32 %.val.i, 1
  store i32 %7, ptr %0, align 4, !tbaa !4
  br label %lean_inc.exit

8:                                                ; preds = %4
  %.not.i10 = icmp eq i32 %.val.i, 0
  br i1 %.not.i10, label %lean_inc.exit, label %9

9:                                                ; preds = %8
  tail call void @lean_inc_ref_cold(ptr noundef nonnull %0) #5
  br label %lean_inc.exit

lean_inc.exit:                                    ; preds = %9, %8, %6, %1
  %10 = tail call ptr @l_String_toName(ptr noundef %0) #5
  %11 = tail call zeroext i8 @l_Lean_Name_isAnonymous(ptr noundef %10) #5
  %12 = ptrtoint ptr %10 to i64
  %13 = and i64 %12, 1
  %.not11 = icmp eq i64 %13, 0
  br i1 %.not11, label %14, label %lean_dec.exit

14:                                               ; preds = %lean_inc.exit
  %15 = load i32, ptr %10, align 4, !tbaa !4
  %16 = icmp sgt i32 %15, 1
  br i1 %16, label %17, label %19, !prof !9

17:                                               ; preds = %14
  %18 = add nsw i32 %15, -1
  store i32 %18, ptr %10, align 4, !tbaa !4
  br label %lean_dec.exit

19:                                               ; preds = %14
  %.not.i = icmp eq i32 %15, 0
  br i1 %.not.i, label %lean_dec.exit, label %20

20:                                               ; preds = %19
  tail call void @lean_dec_ref_cold(ptr noundef nonnull %10) #5
  br label %lean_dec.exit

lean_dec.exit:                                    ; preds = %20, %19, %17, %lean_inc.exit
  %21 = icmp eq i8 %11, 0
  br i1 %21, label %22, label %24

22:                                               ; preds = %lean_dec.exit
  %23 = tail call ptr @l_String_toName(ptr noundef %0) #5
  br label %26

24:                                               ; preds = %lean_dec.exit
  %25 = tail call ptr @l_Lean_Name_str___override(ptr noundef nonnull inttoptr (i64 1 to ptr), ptr noundef %0) #5
  br label %26

26:                                               ; preds = %24, %22
  %.0 = phi ptr [ %23, %22 ], [ %25, %24 ]
  ret ptr %.0
}